; Function Attrs: mustprogress nofree norecurse nosync nounwind willreturn memory(argmem: read) uwtable
define i32 @wolfSSL_CTX_GetDevId(ptr noundef readonly captures(address_is_null) %0, ptr noundef readonly captures(address_is_null) %1) local_unnamed_addr #9 {
  %.not = icmp eq ptr %1, null
  br i1 %.not, label %6, label %3

3:                                                ; preds = %2
  %4 = getelementptr inbounds nuw i8, ptr %1, i64 1204
  %5 = load i32, ptr %4, align 4, !tbaa !162
  br label %6

6:                                                ; preds = %3, %2
  %.0 = phi i32 [ %5, %3 ], [ -2, %2 ]
  %7 = icmp ne ptr %0, null
  %8 = icmp eq i32 %.0, -2
  %or.cond = select i1 %7, i1 %8, i1 false
  br i1 %or.cond, label %9, label %12

9:                                                ; preds = %6
  %10 = getelementptr inbounds nuw i8, ptr %0, i64 280
  %11 = load i32, ptr %10, align 8, !tbaa !163
  br label %12

12:                                               ; preds = %9, %6
  %.1 = phi i32 [ %11, %9 ], [ %.0, %6 ]
  ret i32 %.1
}